; Function Attrs: nounwind uwtable
define internal noundef ptr @zend_internal_iterator_create(ptr noundef %0) #0 {
  %2 = tail call noalias ptr @_emalloc_80() #9
  tail call void @zend_object_std_init(ptr noundef %2, ptr noundef %0) #9
  %3 = getelementptr inbounds i8, ptr %2, i64 56
  store ptr null, ptr %3, align 8
  %4 = getelementptr inbounds i8, ptr %2, i64 64
  store i8 0, ptr %4, align 8
  ret ptr %2
}